; Function Attrs: mustprogress nounwind uwtable
define dso_local void @_ZN31btMultiBodyJointLimitConstraintD0Ev(ptr noundef nonnull align 8 dereferenceable(104) %0) unnamed_addr #4 align 2 personality ptr @__gxx_personality_v0 {
  tail call void @_ZN21btMultiBodyConstraintD2Ev(ptr noundef nonnull align 8 dereferenceable(104) %0) #13
  invoke void @_Z21btAlignedFreeInternalPv(ptr noundef nonnull %0)
          to label %_ZN21btMultiBodyConstraintdlEPv.exit unwind label %2

2:                                                ; preds = %1
  %3 = landingpad { ptr, i32 }
          catch ptr null
  %4 = extractvalue { ptr, i32 } %3, 0
  tail call void @__clang_call_terminate(ptr %4) #14
  unreachable

_ZN21btMultiBodyConstraintdlEPv.exit:             ; preds = %1
  ret void
}